; Function Attrs: mustprogress nofree norecurse nosync nounwind willreturn memory(readwrite, inaccessiblemem: none) uwtable
define internal noundef i32 @h264_init(ptr noundef readonly captures(none) %0) #3 {
  %2 = getelementptr inbounds nuw i8, ptr %0, i64 16
  %3 = load ptr, ptr %2, align 8, !tbaa !4
  %4 = getelementptr inbounds nuw i8, ptr %3, i64 56
  %5 = load ptr, ptr %4, align 8, !tbaa !38
  %6 = getelementptr inbounds nuw i8, ptr %5, i64 24
  store ptr @h264_decompose_unit_types, ptr %6, align 8, !tbaa !64
  %7 = getelementptr inbounds nuw i8, ptr %5, i64 32
  store i32 4, ptr %7, align 8, !tbaa !68
  %8 = getelementptr inbounds nuw i8, ptr %0, i64 24
  %9 = load ptr, ptr %8, align 8, !tbaa !14
  %10 = getelementptr inbounds nuw i8, ptr %9, i64 120
  %11 = load i32, ptr %10, align 8, !tbaa !69
  %.neg = mul i32 %11, -2
  %12 = getelementptr inbounds nuw i8, ptr %3, i64 6304
  store i32 %.neg, ptr %12, align 8, !tbaa !70
  %13 = getelementptr inbounds nuw i8, ptr %3, i64 6296
  store i32 -2147483648, ptr %13, align 8, !tbaa !71
  %14 = getelementptr inbounds nuw i8, ptr %3, i64 6292
  store i32 -2147483648, ptr %14, align 4, !tbaa !77
  ret i32 0
}